; Function Attrs: mustprogress uwtable
define void @_ZN4cvc58internal24IllegalArgumentException9constructEPKcS3_S3_(ptr noundef nonnull align 8 dereferenceable(40) %this, ptr noundef %header, ptr noundef %extra, ptr noundef %function) local_unnamed_addr #0 align 2 personality ptr @__gxx_personality_v0 {
entry:
  %ref.tmp = alloca %"class.std::__cxx11::basic_string", align 8
  %ref.tmp10 = alloca %"class.std::allocator", align 1
  %cmp = icmp eq ptr %extra, null
  %call.us21 = tail call noalias noundef nonnull dereferenceable(256) ptr @_Znam(i64 noundef 256) #18
  br i1 %cmp, label %entry.split.us, label %entry.split

entry.split.us:                                   ; preds = %entry
  %call3.us22 = tail call i32 (ptr, i64, ptr, ...) @snprintf(ptr noundef nonnull dereferenceable(1) %call.us21, i64 noundef 256, ptr noundef nonnull @.str.7, ptr noundef %header, ptr noundef %function) #16
  %cmp6.us23 = icmp slt i32 %call3.us22, 256
  br i1 %cmp6.us23, label %for.end, label %if.else8.us

if.else8.us:                                      ; preds = %entry.split.us, %if.else8.us
  %call3.us25 = phi i32 [ %call3.us, %if.else8.us ], [ %call3.us22, %entry.split.us ]
  %call.us24 = phi ptr [ %call.us, %if.else8.us ], [ %call.us21, %entry.split.us ]
  %add.us = add nuw nsw i32 %call3.us25, 1
  tail call void @_ZdaPv(ptr noundef nonnull %call.us24) #17
  %conv.us = zext nneg i32 %add.us to i64
  %call.us = tail call noalias noundef nonnull ptr @_Znam(i64 noundef %conv.us) #18
  %call3.us = tail call i32 (ptr, i64, ptr, ...) @snprintf(ptr noundef nonnull dereferenceable(1) %call.us, i64 noundef %conv.us, ptr noundef nonnull @.str.7, ptr noundef %header, ptr noundef %function) #16
  %cmp6.us.not = icmp sgt i32 %call3.us, %call3.us25
  br i1 %cmp6.us.not, label %if.else8.us, label %for.end, !llvm.loop !10

entry.split:                                      ; preds = %entry
  %call517 = tail call i32 (ptr, i64, ptr, ...) @snprintf(ptr noundef nonnull dereferenceable(1) %call.us21, i64 noundef 256, ptr noundef nonnull @.str.8, ptr noundef %header, ptr noundef %function, ptr noundef nonnull %extra) #16
  %cmp618 = icmp slt i32 %call517, 256
  br i1 %cmp618, label %for.end, label %if.else8

if.else8:                                         ; preds = %entry.split, %if.else8
  %call520 = phi i32 [ %call5, %if.else8 ], [ %call517, %entry.split ]
  %call19 = phi ptr [ %call, %if.else8 ], [ %call.us21, %entry.split ]
  %add = add nuw nsw i32 %call520, 1
  tail call void @_ZdaPv(ptr noundef nonnull %call19) #17
  %conv = zext nneg i32 %add to i64
  %call = tail call noalias noundef nonnull ptr @_Znam(i64 noundef %conv) #18
  %call5 = tail call i32 (ptr, i64, ptr, ...) @snprintf(ptr noundef nonnull dereferenceable(1) %call, i64 noundef %conv, ptr noundef nonnull @.str.8, ptr noundef %header, ptr noundef %function, ptr noundef nonnull %extra) #16
  %cmp6.not = icmp sgt i32 %call5, %call520
  br i1 %cmp6.not, label %if.else8, label %for.end, !llvm.loop !10

for.end:                                          ; preds = %if.else8, %if.else8.us, %entry.split, %entry.split.us
  %.us-phi = phi ptr [ %call.us21, %entry.split.us ], [ %call.us21, %entry.split ], [ %call.us, %if.else8.us ], [ %call, %if.else8 ]
  call void @_ZNSaIcEC1Ev(ptr noundef nonnull align 1 dereferenceable(1) %ref.tmp10) #16
  %call.i13 = invoke noundef ptr @_ZNSt7__cxx1112basic_stringIcSt11char_traitsIcESaIcEE13_M_local_dataEv(ptr noundef nonnull align 8 dereferenceable(32) %ref.tmp)
          to label %call.i.noexc unwind label %lpad

call.i.noexc:                                     ; preds = %for.end
  invoke void @_ZNSt7__cxx1112basic_stringIcSt11char_traitsIcESaIcEE12_Alloc_hiderC1EPcRKS3_(ptr noundef nonnull align 8 dereferenceable(8) %ref.tmp, ptr noundef %call.i13, ptr noundef nonnull align 1 dereferenceable(1) %ref.tmp10)
          to label %.noexc unwind label %lpad

.noexc:                                           ; preds = %call.i.noexc
  %call.i.i = call noundef i64 @strlen(ptr noundef nonnull dereferenceable(1) %.us-phi) #16
  %add.ptr.i = getelementptr inbounds i8, ptr %.us-phi, i64 %call.i.i
  invoke void @_ZNSt7__cxx1112basic_stringIcSt11char_traitsIcESaIcEE12_M_constructIPKcEEvT_S8_St20forward_iterator_tag(ptr noundef nonnull align 8 dereferenceable(32) %ref.tmp, ptr noundef nonnull %.us-phi, ptr noundef nonnull %add.ptr.i)
          to label %invoke.cont unwind label %lpad.i

lpad.i:                                           ; preds = %.noexc
  %0 = landingpad { ptr, i32 }
          cleanup
  call void @_ZNSaIcED2Ev(ptr noundef nonnull align 1 dereferenceable(1) %ref.tmp) #16
  br label %ehcleanup

invoke.cont:                                      ; preds = %.noexc
  %d_msg.i = getelementptr inbounds i8, ptr %this, i64 8
  %call.i15 = invoke noundef nonnull align 8 dereferenceable(32) ptr @_ZNSt7__cxx1112basic_stringIcSt11char_traitsIcESaIcEEaSERKS4_(ptr noundef nonnull align 8 dereferenceable(32) %d_msg.i, ptr noundef nonnull align 8 dereferenceable(32) %ref.tmp)
          to label %invoke.cont12 unwind label %lpad11

invoke.cont12:                                    ; preds = %invoke.cont
  call void @_ZNSt7__cxx1112basic_stringIcSt11char_traitsIcESaIcEED1Ev(ptr noundef nonnull align 8 dereferenceable(32) %ref.tmp) #16
  call void @_ZNSaIcED1Ev(ptr noundef nonnull align 1 dereferenceable(1) %ref.tmp10) #16
  call void @_ZdaPv(ptr noundef nonnull %.us-phi) #17
  ret void

lpad:                                             ; preds = %call.i.noexc, %for.end
  %1 = landingpad { ptr, i32 }
          cleanup
  br label %ehcleanup

lpad11:                                           ; preds = %invoke.cont
  %2 = landingpad { ptr, i32 }
          cleanup
  call void @_ZNSt7__cxx1112basic_stringIcSt11char_traitsIcESaIcEED1Ev(ptr noundef nonnull align 8 dereferenceable(32) %ref.tmp) #16
  br label %ehcleanup

ehcleanup:                                        ; preds = %lpad, %lpad.i, %lpad11
  %.pn = phi { ptr, i32 } [ %2, %lpad11 ], [ %1, %lpad ], [ %0, %lpad.i ]
  call void @_ZNSaIcED1Ev(ptr noundef nonnull align 1 dereferenceable(1) %ref.tmp10) #16
  resume { ptr, i32 } %.pn
}